target datalayout = "e-m:e-p270:32:32-p271:32:32-p272:64:64-i64:64-i128:128-f80:128-n8:16:32:64-S128"
target triple = "x86_64-pc-linux-gnu"

@.str.1 = private unnamed_addr constant [10 x i8] c"ziplist.c\00", align 1
@.str.2 = private unnamed_addr constant [17 x i8] c"len < UINT32_MAX\00", align 1

; Function Attrs: nounwind uwtable
define dso_local ptr @ziplistResize(ptr noundef %0, i64 noundef %1) #0 {
  %3 = alloca ptr, align 8
  %4 = alloca i64, align 8
  store ptr %0, ptr %3, align 8, !tbaa !5
  store i64 %1, ptr %4, align 8, !tbaa !10
  %5 = load i64, ptr %4, align 8, !tbaa !10
  %6 = icmp ult i64 %5, 4294967295
  %7 = xor i1 %6, true
  %8 = xor i1 %7, true
  %9 = zext i1 %8 to i32
  %10 = sext i32 %9 to i64
  %11 = call i64 @llvm.expect.i64(i64 %10, i64 1)
  %12 = icmp ne i64 %11, 0
  br i1 %12, label %13, label %14

13:                                               ; preds = %2
  br label %16

14:                                               ; preds = %2
  call void @_serverAssert(ptr noundef @.str.2, ptr noundef @.str.1, i32 noundef 723)
  call void @abort() #12
  unreachable

15:                                               ; No predecessors!
  br label %16

16:                                               ; preds = %15, %13
  %17 = load ptr, ptr %3, align 8, !tbaa !5
  %18 = load i64, ptr %4, align 8, !tbaa !10
  %19 = call ptr @zrealloc(ptr noundef %17, i64 noundef %18) #14
  store ptr %19, ptr %3, align 8, !tbaa !5
  %20 = load i64, ptr %4, align 8, !tbaa !10
  %21 = trunc i64 %20 to i32
  %22 = load ptr, ptr %3, align 8, !tbaa !5
  store i32 %21, ptr %22, align 4, !tbaa !12
  %23 = load ptr, ptr %3, align 8, !tbaa !5
  %24 = load i64, ptr %4, align 8, !tbaa !10
  %25 = sub i64 %24, 1
  %26 = getelementptr inbounds nuw i8, ptr %23, i64 %25
  store i8 -1, ptr %26, align 1, !tbaa !14
  %27 = load ptr, ptr %3, align 8, !tbaa !5
  ret ptr %27
}