; Function Attrs: nounwind uwtable
define dso_local noundef ptr @ziplistResize(ptr noundef %0, i64 noundef %1) local_unnamed_addr #5 {
  %3 = icmp ult i64 %1, 4294967295
  br i1 %3, label %5, label %4, !prof !14

4:                                                ; preds = %2
  tail call void @_serverAssert(ptr noundef nonnull @.str.2, ptr noundef nonnull @.str.1, i32 noundef 723) #17
  tail call void @abort() #18
  unreachable

5:                                                ; preds = %2
  %6 = tail call ptr @zrealloc(ptr noundef %0, i64 noundef %1) #20
  %7 = trunc nuw i64 %1 to i32
  store i32 %7, ptr %6, align 4, !tbaa !5
  %8 = getelementptr i8, ptr %6, i64 %1
  %9 = getelementptr i8, ptr %8, i64 -1
  store i8 -1, ptr %9, align 1, !tbaa !9
  ret ptr %6
}